; Function Attrs: mustprogress uwtable
define void @_ZN7rocksdb18WriteableCacheFile12ClearBuffersEv(ptr nocapture noundef nonnull align 8 dereferenceable(273) %this) local_unnamed_addr #0 align 2 personality ptr @__gxx_personality_v0 {
entry:
  %bufs_ = getelementptr inbounds i8, ptr %this, i64 208
  %_M_finish.i = getelementptr inbounds i8, ptr %this, i64 216
  %0 = load ptr, ptr %_M_finish.i, align 8
  %1 = load ptr, ptr %bufs_, align 8
  %cmp8.not = icmp eq ptr %0, %1
  br i1 %cmp8.not, label %_ZNSt6vectorIPN7rocksdb16CacheWriteBufferESaIS2_EE5clearEv.exit, label %for.body.lr.ph

for.body.lr.ph:                                   ; preds = %entry
  %alloc_ = getelementptr inbounds i8, ptr %this, i64 184
  br label %for.body

for.body:                                         ; preds = %for.body.lr.ph, %for.body
  %2 = phi ptr [ %1, %for.body.lr.ph ], [ %6, %for.body ]
  %i.09 = phi i64 [ 0, %for.body.lr.ph ], [ %inc, %for.body ]
  %3 = load ptr, ptr %alloc_, align 8
  %add.ptr.i = getelementptr inbounds ptr, ptr %2, i64 %i.09
  %4 = load ptr, ptr %add.ptr.i, align 8
  tail call void @_ZN7rocksdb25CacheWriteBufferAllocator10DeallocateEPNS_16CacheWriteBufferE(ptr noundef nonnull align 8 dereferenceable(136) %3, ptr noundef %4)
  %inc = add nuw i64 %i.09, 1
  %5 = load ptr, ptr %_M_finish.i, align 8
  %6 = load ptr, ptr %bufs_, align 8
  %sub.ptr.lhs.cast.i = ptrtoint ptr %5 to i64
  %sub.ptr.rhs.cast.i = ptrtoint ptr %6 to i64
  %sub.ptr.sub.i = sub i64 %sub.ptr.lhs.cast.i, %sub.ptr.rhs.cast.i
  %sub.ptr.div.i = ashr exact i64 %sub.ptr.sub.i, 3
  %cmp = icmp ult i64 %inc, %sub.ptr.div.i
  br i1 %cmp, label %for.body, label %for.end, !llvm.loop !13

for.end:                                          ; preds = %for.body
  %tobool.not.i.i = icmp eq ptr %5, %6
  br i1 %tobool.not.i.i, label %_ZNSt6vectorIPN7rocksdb16CacheWriteBufferESaIS2_EE5clearEv.exit, label %invoke.cont.i.i

invoke.cont.i.i:                                  ; preds = %for.end
  store ptr %6, ptr %_M_finish.i, align 8
  br label %_ZNSt6vectorIPN7rocksdb16CacheWriteBufferESaIS2_EE5clearEv.exit

_ZNSt6vectorIPN7rocksdb16CacheWriteBufferESaIS2_EE5clearEv.exit: ; preds = %entry, %for.end, %invoke.cont.i.i
  ret void
}